; Function Attrs: mustprogress nounwind willreturn uwtable
define internal fastcc void @Vec_IntFill(ptr noundef captures(none) initializes((4, 8)) %0, i32 noundef %1) unnamed_addr #2 {
.critedge:
  %2 = load i32, ptr %0, align 8
  %.not.i = icmp slt i32 %2, 1
  %3 = getelementptr inbounds nuw i8, ptr %0, i64 8
  %4 = load ptr, ptr %3, align 8
  br i1 %.not.i, label %5, label %Vec_IntGrow.exit

5:                                                ; preds = %.critedge
  %.not9.i = icmp eq ptr %4, null
  br i1 %.not9.i, label %8, label %6

6:                                                ; preds = %5
  %7 = tail call dereferenceable_or_null(4) ptr @realloc(ptr noundef nonnull %4, i64 noundef 4) #7
  br label %10

8:                                                ; preds = %5
  %9 = tail call noalias dereferenceable_or_null(4) ptr @malloc(i64 noundef 4) #8
  br label %10

10:                                               ; preds = %8, %6
  %11 = phi ptr [ %7, %6 ], [ %9, %8 ]
  store ptr %11, ptr %3, align 8
  store i32 1, ptr %0, align 8
  br label %Vec_IntGrow.exit

Vec_IntGrow.exit:                                 ; preds = %.critedge, %10
  %12 = phi ptr [ %11, %10 ], [ %4, %.critedge ]
  store i32 %1, ptr %12, align 4
  %13 = getelementptr inbounds nuw i8, ptr %0, i64 4
  store i32 1, ptr %13, align 4
  ret void
}